target datalayout = "e-m:e-p270:32:32-p271:32:32-p272:64:64-i64:64-i128:128-f80:128-n8:16:32:64-S128"
target triple = "x86_64-pc-linux-gnu"

; Function Attrs: nounwind uwtable
define internal i32 @WriteLE(ptr noundef %0, i32 noundef %1, i32 noundef %2) #0 {
  %4 = alloca ptr, align 8
  %5 = alloca i32, align 4
  %6 = alloca i32, align 4
  %7 = alloca [4 x i8], align 1
  %8 = alloca i32, align 4
  store ptr %0, ptr %4, align 8
  store i32 %1, ptr %5, align 4
  store i32 %2, ptr %6, align 4
  store i32 0, ptr %8, align 4
  br label %9

9:                                                ; preds = %22, %3
  %10 = load i32, ptr %8, align 4
  %11 = load i32, ptr %6, align 4
  %12 = icmp slt i32 %10, %11
  br i1 %12, label %13, label %25

13:                                               ; preds = %9
  %14 = load i32, ptr %5, align 4
  %15 = and i32 %14, 255
  %16 = trunc i32 %15 to i8
  %17 = load i32, ptr %8, align 4
  %18 = sext i32 %17 to i64
  %19 = getelementptr inbounds [4 x i8], ptr %7, i64 0, i64 %18
  store i8 %16, ptr %19, align 1
  %20 = load i32, ptr %5, align 4
  %21 = lshr i32 %20, 8
  store i32 %21, ptr %5, align 4
  br label %22

22:                                               ; preds = %13
  %23 = load i32, ptr %8, align 4
  %24 = add nsw i32 %23, 1
  store i32 %24, ptr %8, align 4
  br label %9, !llvm.loop !19

25:                                               ; preds = %9
  %26 = getelementptr inbounds [4 x i8], ptr %7, i64 0, i64 0
  %27 = load i32, ptr %6, align 4
  %28 = sext i32 %27 to i64
  %29 = load ptr, ptr %4, align 8
  %30 = call i64 @fwrite(ptr noundef %26, i64 noundef %28, i64 noundef 1, ptr noundef %29)
  %31 = icmp eq i64 %30, 1
  %32 = zext i1 %31 to i32
  ret i32 %32
}

; Function Attrs: nounwind uwtable
define internal i32 @WriteLE24(ptr noundef %0, i32 noundef %1) #0 {
  %3 = alloca ptr, align 8
  %4 = alloca i32, align 4
  store ptr %0, ptr %3, align 8
  store i32 %1, ptr %4, align 4
  %5 = load ptr, ptr %3, align 8
  %6 = load i32, ptr %4, align 4
  %7 = call i32 @WriteLE(ptr noundef %5, i32 noundef %6, i32 noundef 3)
  ret i32 %7
}