; Function Attrs: nofree nounwind uwtable
define internal fastcc range(i32 0, 2) i32 @WriteLE24(ptr nocapture noundef %0, i32 noundef %1) unnamed_addr #3 {
  %3 = alloca [4 x i8], align 1
  call void @llvm.lifetime.start.p0(i64 4, ptr nonnull %3)
  br label %.lr.ph.i

.lr.ph.i:                                         ; preds = %.lr.ph.i, %2
  %indvars.iv.i = phi i64 [ %indvars.iv.next.i, %.lr.ph.i ], [ 0, %2 ]
  %.079.i = phi i32 [ %6, %.lr.ph.i ], [ %1, %2 ]
  %4 = trunc i32 %.079.i to i8
  %5 = getelementptr inbounds [4 x i8], ptr %3, i64 0, i64 %indvars.iv.i
  store i8 %4, ptr %5, align 1
  %6 = lshr i32 %.079.i, 8
  %indvars.iv.next.i = add nuw nsw i64 %indvars.iv.i, 1
  %exitcond.not.i = icmp eq i64 %indvars.iv.next.i, 3
  br i1 %exitcond.not.i, label %WriteLE.exit, label %.lr.ph.i, !llvm.loop !17

WriteLE.exit:                                     ; preds = %.lr.ph.i
  %7 = call i64 @fwrite(ptr noundef nonnull %3, i64 noundef 3, i64 noundef 1, ptr noundef %0)
  %8 = icmp eq i64 %7, 1
  %9 = zext i1 %8 to i32
  call void @llvm.lifetime.end.p0(i64 4, ptr nonnull %3)
  ret i32 %9
}